; Function Attrs: mustprogress uwtable
define void @_ZN5draco13EncoderBuffer14EndBitEncodingEv(ptr noundef nonnull align 8 dereferenceable(41) %0) local_unnamed_addr #5 align 2 personality ptr @__gxx_personality_v0 {
  %2 = alloca %"class.draco::EncoderBuffer", align 8
  %3 = getelementptr inbounds nuw i8, ptr %0, i64 32
  %4 = load i64, ptr %3, align 8, !tbaa !10
  %5 = icmp sgt i64 %4, 0
  br i1 %5, label %6, label %59

6:                                                ; preds = %1
  %7 = getelementptr inbounds nuw i8, ptr %0, i64 24
  %8 = load ptr, ptr %7, align 8, !tbaa !30
  %9 = getelementptr inbounds nuw i8, ptr %8, i64 8
  %10 = load i64, ptr %9, align 8, !tbaa !29
  %11 = add i64 %10, 7
  %12 = lshr i64 %11, 3
  %13 = getelementptr inbounds nuw i8, ptr %0, i64 40
  %14 = load i8, ptr %13, align 8, !tbaa !26, !range !31, !noundef !32
  %15 = trunc nuw i8 %14 to i1
  br i1 %15, label %16, label %50

16:                                               ; preds = %6
  %17 = load ptr, ptr %0, align 8, !tbaa !3
  %18 = getelementptr inbounds nuw i8, ptr %0, i64 8
  %19 = load ptr, ptr %18, align 8, !tbaa !9
  call void @llvm.lifetime.start.p0(i64 48, ptr nonnull %2) #19
  call void @_ZN5draco13EncoderBufferC1Ev(ptr noundef nonnull align 8 dereferenceable(41) %2)
  %20 = invoke noundef zeroext i1 @_ZN5draco12EncodeVarintImEEbT_PNS_13EncoderBufferE(i64 noundef %12, ptr noundef nonnull %2)
          to label %21 unwind label %48

21:                                               ; preds = %16
  %22 = ptrtoint ptr %19 to i64
  %23 = ptrtoint ptr %17 to i64
  %24 = sub i64 %22, %23
  %25 = getelementptr inbounds nuw i8, ptr %17, i64 %24
  %26 = sub nuw i64 -8, %4
  %27 = getelementptr inbounds i8, ptr %25, i64 %26
  %28 = getelementptr inbounds nuw i8, ptr %2, i64 8
  %29 = load ptr, ptr %28, align 8, !tbaa !9
  %30 = load ptr, ptr %2, align 8, !tbaa !3
  %31 = ptrtoint ptr %29 to i64
  %32 = ptrtoint ptr %30 to i64
  %33 = sub i64 %31, %32
  %34 = and i64 %33, 4294967295
  %35 = getelementptr inbounds nuw i8, ptr %27, i64 %34
  %36 = getelementptr inbounds nuw i8, ptr %27, i64 8
  call void @llvm.memmove.p0.p0.i64(ptr nonnull align 1 %35, ptr nonnull align 1 %36, i64 %12, i1 false)
  call void @llvm.memcpy.p0.p0.i64(ptr nonnull align 1 %27, ptr align 1 %30, i64 %34, i1 false)
  %37 = load i64, ptr %3, align 8, !tbaa !10
  %reass.sub18 = sub i64 %37, %34
  %38 = add i64 %reass.sub18, 8
  store i64 %38, ptr %3, align 8, !tbaa !10
  %39 = getelementptr inbounds nuw i8, ptr %2, i64 24
  %40 = load ptr, ptr %39, align 8, !tbaa !30
  %.not.i.i = icmp eq ptr %40, null
  br i1 %.not.i.i, label %_ZNSt10unique_ptrIN5draco13EncoderBuffer10BitEncoderESt14default_deleteIS2_EED2Ev.exit.i, label %_ZNKSt14default_deleteIN5draco13EncoderBuffer10BitEncoderEEclEPS2_.exit.i.i

_ZNKSt14default_deleteIN5draco13EncoderBuffer10BitEncoderEEclEPS2_.exit.i.i: ; preds = %21
  call void @_ZdlPvm(ptr noundef nonnull %40, i64 noundef 16) #18
  %.pre = load ptr, ptr %2, align 8, !tbaa !3
  br label %_ZNSt10unique_ptrIN5draco13EncoderBuffer10BitEncoderESt14default_deleteIS2_EED2Ev.exit.i

_ZNSt10unique_ptrIN5draco13EncoderBuffer10BitEncoderESt14default_deleteIS2_EED2Ev.exit.i: ; preds = %_ZNKSt14default_deleteIN5draco13EncoderBuffer10BitEncoderEEclEPS2_.exit.i.i, %21
  %41 = phi ptr [ %.pre, %_ZNKSt14default_deleteIN5draco13EncoderBuffer10BitEncoderEEclEPS2_.exit.i.i ], [ %30, %21 ]
  store ptr null, ptr %39, align 8, !tbaa !30
  %.not.i.i.i.i = icmp eq ptr %41, null
  br i1 %.not.i.i.i.i, label %_ZN5draco13EncoderBufferD2Ev.exit, label %42

42:                                               ; preds = %_ZNSt10unique_ptrIN5draco13EncoderBuffer10BitEncoderESt14default_deleteIS2_EED2Ev.exit.i
  %43 = getelementptr inbounds nuw i8, ptr %2, i64 16
  %44 = load ptr, ptr %43, align 8, !tbaa !24
  %45 = ptrtoint ptr %44 to i64
  %46 = ptrtoint ptr %41 to i64
  %47 = sub i64 %45, %46
  call void @_ZdlPvm(ptr noundef nonnull %41, i64 noundef %47) #18
  br label %_ZN5draco13EncoderBufferD2Ev.exit

_ZN5draco13EncoderBufferD2Ev.exit:                ; preds = %_ZNSt10unique_ptrIN5draco13EncoderBuffer10BitEncoderESt14default_deleteIS2_EED2Ev.exit.i, %42
  call void @llvm.lifetime.end.p0(i64 48, ptr nonnull %2) #19
  %.pre19 = load i64, ptr %3, align 8, !tbaa !10
  br label %50

48:                                               ; preds = %16
  %49 = landingpad { ptr, i32 }
          cleanup
  call void @_ZN5draco13EncoderBufferD2Ev(ptr noundef nonnull align 8 dereferenceable(41) %2) #19
  call void @llvm.lifetime.end.p0(i64 48, ptr nonnull %2) #19
  resume { ptr, i32 } %49

50:                                               ; preds = %_ZN5draco13EncoderBufferD2Ev.exit, %6
  %51 = phi i64 [ %.pre19, %_ZN5draco13EncoderBufferD2Ev.exit ], [ %4, %6 ]
  %52 = getelementptr inbounds nuw i8, ptr %0, i64 8
  %53 = load ptr, ptr %52, align 8, !tbaa !9
  %54 = load ptr, ptr %0, align 8, !tbaa !3
  %55 = ptrtoint ptr %53 to i64
  %56 = ptrtoint ptr %54 to i64
  %.neg17 = add i64 %12, %55
  %57 = add i64 %51, %56
  %58 = sub i64 %.neg17, %57
  call void @_ZNSt6vectorIcSaIcEE6resizeEm(ptr noundef nonnull align 8 dereferenceable(24) %0, i64 noundef %58)
  store i64 0, ptr %3, align 8, !tbaa !10
  br label %59

59:                                               ; preds = %1, %50
  ret void
}